; Function Attrs: mustprogress nofree norecurse nosync nounwind willreturn memory(argmem: readwrite) uwtable
define noundef ptr @_ZNK6icu_7717DateFormatSymbols11getWeekdaysERiNS0_13DtContextTypeENS0_11DtWidthTypeE(ptr noundef nonnull readonly align 8 captures(none) dereferenceable(976) %0, ptr noundef nonnull writeonly align 4 captures(none) dereferenceable(4) %1, i32 noundef %2, i32 noundef %3) local_unnamed_addr #13 align 2 {
  switch i32 %2, label %15 [
    i32 0, label %5
    i32 1, label %7
  ]

5:                                                ; preds = %4
  %6 = icmp ult i32 %3, 4
  br i1 %6, label %.sink.split, label %15

7:                                                ; preds = %4
  %8 = icmp ult i32 %3, 4
  br i1 %8, label %.sink.split, label %15

.sink.split:                                      ; preds = %7, %5
  %switch.table._ZNK6icu_7717DateFormatSymbols11getWeekdaysERiNS0_13DtContextTypeENS0_11DtWidthTypeE.9.sink = phi ptr [ @switch.table._ZNK6icu_7717DateFormatSymbols11getWeekdaysERiNS0_13DtContextTypeENS0_11DtWidthTypeE, %5 ], [ @switch.table._ZNK6icu_7717DateFormatSymbols11getWeekdaysERiNS0_13DtContextTypeENS0_11DtWidthTypeE.9, %7 ]
  %switch.table._ZNK6icu_7717DateFormatSymbols11getWeekdaysERiNS0_13DtContextTypeENS0_11DtWidthTypeE.10.sink = phi ptr [ @switch.table._ZNK6icu_7717DateFormatSymbols11getWeekdaysERiNS0_13DtContextTypeENS0_11DtWidthTypeE.8, %5 ], [ @switch.table._ZNK6icu_7717DateFormatSymbols11getWeekdaysERiNS0_13DtContextTypeENS0_11DtWidthTypeE.10, %7 ]
  %9 = sext i32 %3 to i64
  %switch.gep17 = getelementptr inbounds [4 x i64], ptr %switch.table._ZNK6icu_7717DateFormatSymbols11getWeekdaysERiNS0_13DtContextTypeENS0_11DtWidthTypeE.9.sink, i64 0, i64 %9
  %switch.load18 = load i64, ptr %switch.gep17, align 8
  %10 = sext i32 %3 to i64
  %switch.gep19 = getelementptr inbounds [4 x i64], ptr %switch.table._ZNK6icu_7717DateFormatSymbols11getWeekdaysERiNS0_13DtContextTypeENS0_11DtWidthTypeE.10.sink, i64 0, i64 %10
  %switch.load20 = load i64, ptr %switch.gep19, align 8
  %11 = getelementptr inbounds nuw i8, ptr %0, i64 %switch.load18
  %12 = load i32, ptr %11, align 8, !tbaa !12
  store i32 %12, ptr %1, align 4, !tbaa !12
  %13 = getelementptr inbounds nuw i8, ptr %0, i64 %switch.load20
  %14 = load ptr, ptr %13, align 8, !tbaa !127
  br label %15

15:                                               ; preds = %7, %5, %.sink.split, %4
  %.0 = phi ptr [ null, %4 ], [ null, %7 ], [ null, %5 ], [ %14, %.sink.split ]
  ret ptr %.0
}